; Function Attrs: nounwind uwtable
define dso_local void @mp_encode_lua_bool(ptr noundef %0, ptr noundef captures(none) %1) local_unnamed_addr #2 {
  %3 = alloca ptr, align 8
  %4 = tail call i32 @lua_toboolean(ptr noundef %0, i32 noundef -1) #10
  %5 = getelementptr inbounds nuw i8, ptr %1, i64 16
  %6 = load i64, ptr %5, align 8, !tbaa !11
  %7 = icmp eq i64 %6, 0
  br i1 %7, label %8, label %._crit_edge.i

._crit_edge.i:                                    ; preds = %2
  %.pre.i = load ptr, ptr %1, align 8, !tbaa !15
  %.phi.trans.insert.i = getelementptr inbounds nuw i8, ptr %1, i64 8
  %.pre28.i = load i64, ptr %.phi.trans.insert.i, align 8, !tbaa !16
  br label %mp_buf_append.exit

8:                                                ; preds = %2
  %9 = getelementptr inbounds nuw i8, ptr %1, i64 8
  %10 = load i64, ptr %9, align 8, !tbaa !16
  %or.cond.i = icmp ugt i64 %10, 9223372036854775805
  br i1 %or.cond.i, label %11, label %12

11:                                               ; preds = %8
  tail call void @abort() #11
  unreachable

12:                                               ; preds = %8
  %13 = shl nuw i64 %10, 1
  %14 = add nuw i64 %13, 2
  %15 = load ptr, ptr %1, align 8, !tbaa !15
  call void @llvm.lifetime.start.p0(i64 8, ptr nonnull %3) #10
  %16 = call ptr @lua_getallocf(ptr noundef %0, ptr noundef nonnull %3) #10
  %17 = load ptr, ptr %3, align 8, !tbaa !9
  %18 = call ptr %16(ptr noundef %17, ptr noundef %15, i64 noundef %10, i64 noundef %14) #10
  call void @llvm.lifetime.end.p0(i64 8, ptr nonnull %3) #10
  store ptr %18, ptr %1, align 8, !tbaa !15
  %19 = load i64, ptr %9, align 8, !tbaa !16
  %20 = sub i64 %14, %19
  store i64 %20, ptr %5, align 8, !tbaa !11
  br label %mp_buf_append.exit

mp_buf_append.exit:                               ; preds = %._crit_edge.i, %12
  %21 = phi i64 [ %.pre28.i, %._crit_edge.i ], [ %19, %12 ]
  %22 = phi ptr [ %.pre.i, %._crit_edge.i ], [ %18, %12 ]
  %.not = icmp eq i32 %4, 0
  %23 = select i1 %.not, i8 -62, i8 -61
  %24 = getelementptr inbounds nuw i8, ptr %1, i64 8
  %25 = getelementptr inbounds nuw i8, ptr %22, i64 %21
  store i8 %23, ptr %25, align 1
  %26 = load i64, ptr %24, align 8, !tbaa !16
  %27 = add i64 %26, 1
  store i64 %27, ptr %24, align 8, !tbaa !16
  %28 = load i64, ptr %5, align 8, !tbaa !11
  %29 = add i64 %28, -1
  store i64 %29, ptr %5, align 8, !tbaa !11
  ret void
}